; Function Attrs: mustprogress uwtable
define noundef zeroext i1 @_ZNK5Ipopt24LowRankSSAugSystemSolver15ProvidesInertiaEv(ptr noundef nonnull readonly align 8 captures(none) dereferenceable(200) %0) unnamed_addr #6 align 2 {
  %2 = getelementptr inbounds nuw i8, ptr %0, i64 56
  %3 = load ptr, ptr %2, align 8, !tbaa !10
  %4 = load ptr, ptr %3, align 8, !tbaa !8
  %5 = getelementptr inbounds nuw i8, ptr %4, i64 48
  %6 = load ptr, ptr %5, align 8
  %7 = tail call noundef zeroext i1 %6(ptr noundef nonnull align 8 dereferenceable(49) %3)
  ret i1 %7
}